Certificate:
    Data:
        Version: 3 (0x2)
        Serial Number:
            f9:50:8f:65:b6:9c:52:51
    Signature Algorithm: sha1WithRSAEncryption
        Issuer: C=ZH, ST=Shannxi, O=NIPC-Xi'an, CN=Justin/emailAddress=yzyuan6@gmail.com
        Validity
            Not Before: Nov 21 04:45:52 2012 GMT
            Not After : Nov 21 04:45:52 2015 GMT
        Subject: C=ZH, ST=Shannxi, O=NIPC-Xi'an, CN=Justin/emailAddress=yzyuan6@gmail.com
        Subject Public Key Info:
            Public Key Algorithm: rsaEncryption
                Public-Key: (2048 bit)
                Modulus:
                    00:c9:54:68:b2:49:89:7a:1a:b0:48:98:5d:ba:fa:
                    81:b7:be:74:42:08:b5:92:f2:7a:85:18:cf:cc:d8:
                    05:0a:b0:4d:2a:f7:44:20:30:93:73:fa:2d:97:44:
                    eb:77:fe:fe:27:91:96:46:16:37:4f:bb:d6:c4:da:
                    f1:d7:30:d8:7d:e2:4d:99:f3:1a:b9:f4:22:67:10:
                    f1:7b:79:6b:11:4b:a9:84:d7:ad:89:03:52:77:eb:
                    08:9e:46:c4:53:ea:46:fc:ea:06:72:d3:fd:d7:3a:
                    4d:a5:fd:0a:48:76:7f:51:1f:35:5f:eb:63:13:f5:
                    bd:9e:3c:4d:a8:9d:4f:aa:07:ec:74:d5:fd:34:13:
                    34:c2:dc:12:71:4d:34:9f:84:2b:93:41:b9:13:f3:
                    c3:7a:2e:07:58:cf:95:79:28:d5:66:f6:6a:0a:77:
                    87:7b:c6:4d:9d:ad:45:23:a2:df:47:bd:ae:c4:1f:
                    ba:b4:0e:b2:8f:93:b8:b5:2d:1c:c7:e4:c6:8a:a6:
                    22:51:3f:56:10:d9:df:49:68:d5:04:46:58:83:f0:
                    71:99:6b:6e:b9:a6:39:7a:e8:ff:2e:b5:f3:44:85:
                    f8:fc:1e:73:63:1c:2e:7b:14:ff:20:8b:30:7c:fe:
                    65:2e:64:dd:f0:98:ae:5e:b2:70:d9:25:27:3d:20:
                    3e:a9
                Exponent: 65537 (0x10001)
        X509v3 extensions:
            X509v3 Subject Key Identifier: 
                40:67:31:F1:33:F9:A1:0E:FE:83:7F:F8:93:39:0B:65:B2:23:4B:BD
            X509v3 Authority Key Identifier: 
                keyid:40:67:31:F1:33:F9:A1:0E:FE:83:7F:F8:93:39:0B:65:B2:23:4B:BD

            X509v3 Basic Constraints: 
                CA:TRUE
    Signature Algorithm: sha1WithRSAEncryption
         2f:65:ca:37:27:e8:82:93:c2:58:1e:68:5c:26:39:61:d8:f9:
         54:67:c1:39:37:5f:ec:81:ba:71:c3:05:2c:ee:1e:ec:73:3f:
         28:9b:f4:2b:a8:1f:6a:22:f6:79:12:26:1f:be:f3:94:6d:ad:
         a0:d4:5f:9c:d6:c1:a2:4e:f6:09:5f:56:6b:2e:7d:55:39:04:
         82:5f:b3:39:d6:17:9e:28:e2:7c:65:f4:58:d4:c1:bd:fe:3c:
         52:ba:e1:f8:44:a8:48:49:eb:03:c4:9e:1e:2c:08:c9:4d:5b:
         a4:56:46:15:c3:c7:74:bc:15:70:a4:e5:b9:96:63:94:8e:92:
         c1:71:9e:2e:5b:bf:01:ae:e5:f3:71:69:a1:fc:82:b7:ca:9f:
         fd:ca:ad:6b:41:42:9a:d9:64:97:65:15:ce:ca:35:5d:46:64:
         12:29:d6:44:53:a1:3a:23:e3:00:7f:e3:f3:de:e5:26:7c:c7:
         81:fb:74:14:df:b1:01:17:60:f1:13:46:0f:ec:5b:23:29:a0:
         f0:b8:ee:d9:aa:f9:fe:ce:5b:7a:81:9f:d4:c2:6c:e5:be:fd:
         46:8a:2d:8e:cc:39:e7:0f:5b:5a:d5:09:fa:e9:37:70:b5:7e:
         fa:be:b0:ba:6f:e8:07:e9:43:74:a6:41:00:f9:59:c4:d3:df:
         b4:61:94:e2
-----BEGIN CERTIFICATE-----
MIIDoTCCAomgAwIBAgIJAPlQj2W2nFJRMA0GCSqGSIb3DQEBBQUAMGcxCzAJBgNV
BAYTAlpIMRAwDgYDVQQIDAdTaGFubnhpMRMwEQYDVQQKDApOSVBDLVhpJ2FuMQ8w
DQYDVQQDDAZKdXN0aW4xIDAeBgkqhkiG9w0BCQEWEXl6eXVhbjZAZ21haWwuY29t
MB4XDTEyMTEyMTA0NDU1MloXDTE1MTEyMTA0NDU1MlowZzELMAkGA1UEBhMCWkgx
EDAOBgNVBAgMB1NoYW5ueGkxEzARBgNVBAoMCk5JUEMtWGknYW4xDzANBgNVBAMM
Bkp1c3RpbjEgMB4GCSqGSIb3DQEJARYReXp5dWFuNkBnbWFpbC5jb20wggEiMA0G
CSqGSIb3DQEBAQUAA4IBDwAwggEKAoIBAQDJVGiySYl6GrBImF26+oG3vnRCCLWS
8nqFGM/M2AUKsE0q90QgMJNz+i2XROt3/v4nkZZGFjdPu9bE2vHXMNh94k2Z8xq5
9CJnEPF7eWsRS6mE162JA1J36wieRsRT6kb86gZy0/3XOk2l/QpIdn9RHzVf62MT
9b2ePE2onU+qB+x01f00EzTC3BJxTTSfhCuTQbkT88N6LgdYz5V5KNVm9moKd4d7
xk2drUUjot9Hva7EH7q0DrKPk7i1LRzH5MaKpiJRP1YQ2d9JaNUERliD8HGZa265
pjl66P8utfNEhfj8HnNjHC57FP8gizB8/mUuZN3wmK5esnDZJSc9ID6pAgMBAAGj
UDBOMB0GA1UdDgQWBBRAZzHxM/mhDv6Df/iTOQtlsiNLvTAfBgNVHSMEGDAWgBRA
ZzHxM/mhDv6Df/iTOQtlsiNLvTAMBgNVHRMEBTADAQH/MA0GCSqGSIb3DQEBBQUA
A4IBAQAvZco3J+iCk8JYHmhcJjlh2PlUZ8E5N1/sgbpxwwUs7h7scz8om/QrqB9q
IvZ5EiYfvvOUba2g1F+c1sGiTvYJX1ZrLn1VOQSCX7M51heeKOJ8ZfRY1MG9/jxS
uuH4RKhISesDxJ4eLAjJTVukVkYVw8d0vBVwpOW5lmOUjpLBcZ4uW78BruXzcWmh
/IK3yp/9yq1rQUKa2WSXZRXOyjVdRmQSKdZEU6E6I+MAf+Pz3uUmfMeB+3QU37EB
F2DxE0YP7FsjKaDwuO7Zqvn+zlt6gZ/Uwmzlvv1Gii2OzDnnD1ta1Qn66TdwtX76
vrC6b+gH6UN0pkEA+VnE09+0YZTi
-----END CERTIFICATE-----
