Certificate:
    Data:
        Version: 3 (0x2)
        Serial Number:
            f9:50:8f:65:b6:9c:52:53
    Signature Algorithm: sha1WithRSAEncryption
        Issuer: C=ZH, ST=Shannxi, O=NIPC-Xi'an, CN=Justin/emailAddress=yzyuan6@gmail.com
        Validity
            Not Before: Nov 21 14:42:21 2012 GMT
            Not After : Nov 21 14:42:21 2013 GMT
        Subject: C=ZH, ST=Shannxi, O=NIPC-Xi'an, OU=Server, CN=server
        Subject Public Key Info:
            Public Key Algorithm: rsaEncryption
                Public-Key: (1024 bit)
                Modulus:
                    00:f4:12:cc:df:0f:2d:18:a5:0a:09:24:8c:fb:87:
                    85:1e:99:e2:bb:53:2f:d4:31:4c:12:18:b0:b2:30:
                    3d:6b:43:ea:05:ed:77:24:3f:6f:46:63:0d:82:db:
                    2c:a1:67:ca:70:44:e3:fc:ba:f4:34:61:d5:b4:06:
                    72:ef:93:46:94:b0:a3:c1:c9:9c:d3:65:7a:52:8a:
                    a8:91:2b:09:ec:51:29:e3:d8:25:65:41:d0:96:99:
                    96:cc:3e:72:95:88:80:e1:a3:0b:bf:26:a4:a8:6b:
                    26:0f:b1:4f:f7:43:a9:bc:a4:02:e1:0d:8d:83:ce:
                    1e:1d:a2:97:c3:8e:82:d8:13
                Exponent: 65537 (0x10001)
        X509v3 extensions:
            X509v3 Basic Constraints: 
                CA:FALSE
            Netscape Comment: 
                OpenSSL Generated Certificate
            X509v3 Subject Key Identifier: 
                EB:CD:63:6F:51:9A:E1:FC:57:84:BD:DB:A2:24:DE:68:7A:E9:35:D9
            X509v3 Authority Key Identifier: 
                keyid:40:67:31:F1:33:F9:A1:0E:FE:83:7F:F8:93:39:0B:65:B2:23:4B:BD

    Signature Algorithm: sha1WithRSAEncryption
         0c:ec:24:60:32:f2:a3:e3:30:c3:5b:4e:ea:41:15:0f:6e:e1:
         4f:c2:6b:da:29:62:85:a9:24:e9:ae:50:08:5e:56:63:72:24:
         2e:a8:d6:28:32:05:0b:b0:dc:b4:e3:4d:23:15:56:b8:5a:13:
         2e:2a:82:ed:d6:bd:b8:cf:b3:2d:fa:b3:de:fc:05:bd:f8:d8:
         0d:b4:9c:6c:5f:5c:11:34:20:32:a7:72:38:6b:15:c7:a8:7a:
         86:94:6e:60:c8:bd:c0:93:10:b0:c6:14:1c:14:b9:e1:21:2d:
         d0:17:fa:66:01:d6:62:df:f8:b4:b7:86:96:cb:a1:b6:8b:3f:
         c7:9d:a7:b0:93:14:4a:07:f2:e9:c4:1c:56:0b:80:e5:56:e3:
         5a:dd:02:71:36:0a:9f:46:d1:39:75:41:a3:a4:ea:8e:ee:6e:
         05:68:90:42:e1:16:84:7d:52:1f:78:b4:40:1f:91:12:8c:0c:
         58:85:76:a2:6e:ad:fc:5a:24:6c:94:39:5a:4c:85:0a:17:31:
         f3:5f:37:57:0b:5e:fa:07:1a:86:81:39:10:ae:76:6b:26:5b:
         c9:3b:0f:ff:f4:a9:95:c7:7b:dd:8f:85:9b:2e:e7:fd:de:97:
         33:8f:c4:c6:23:d5:ff:76:61:07:be:0f:e5:fd:95:d7:e0:7c:
         b6:9c:4c:65
-----BEGIN CERTIFICATE-----
MIIDNzCCAh+gAwIBAgIJAPlQj2W2nFJTMA0GCSqGSIb3DQEBBQUAMGcxCzAJBgNV
BAYTAlpIMRAwDgYDVQQIDAdTaGFubnhpMRMwEQYDVQQKDApOSVBDLVhpJ2FuMQ8w
DQYDVQQDDAZKdXN0aW4xIDAeBgkqhkiG9w0BCQEWEXl6eXVhbjZAZ21haWwuY29t
MB4XDTEyMTEyMTE0NDIyMVoXDTEzMTEyMTE0NDIyMVowVjELMAkGA1UEBhMCWkgx
EDAOBgNVBAgMB1NoYW5ueGkxEzARBgNVBAoMCk5JUEMtWGknYW4xDzANBgNVBAsM
BlNlcnZlcjEPMA0GA1UEAwwGc2VydmVyMIGfMA0GCSqGSIb3DQEBAQUAA4GNADCB
iQKBgQD0EszfDy0YpQoJJIz7h4UemeK7Uy/UMUwSGLCyMD1rQ+oF7XckP29GYw2C
2yyhZ8pwROP8uvQ0YdW0BnLvk0aUsKPByZzTZXpSiqiRKwnsUSnj2CVlQdCWmZbM
PnKViIDhowu/JqSoayYPsU/3Q6m8pALhDY2Dzh4dopfDjoLYEwIDAQABo3sweTAJ
BgNVHRMEAjAAMCwGCWCGSAGG+EIBDQQfFh1PcGVuU1NMIEdlbmVyYXRlZCBDZXJ0
aWZpY2F0ZTAdBgNVHQ4EFgQU681jb1Ga4fxXhL3boiTeaHrpNdkwHwYDVR0jBBgw
FoAUQGcx8TP5oQ7+g3/4kzkLZbIjS70wDQYJKoZIhvcNAQEFBQADggEBAAzsJGAy
8qPjMMNbTupBFQ9u4U/Ca9opYoWpJOmuUAheVmNyJC6o1igyBQuw3LTjTSMVVrha
Ey4qgu3WvbjPsy36s978Bb342A20nGxfXBE0IDKncjhrFceoeoaUbmDIvcCTELDG
FBwUueEhLdAX+mYB1mLf+LS3hpbLobaLP8edp7CTFEoH8unEHFYLgOVW41rdAnE2
Cp9G0Tl1QaOk6o7ubgVokELhFoR9Uh94tEAfkRKMDFiFdqJurfxaJGyUOVpMhQoX
MfNfN1cLXvoHGoaBORCudmsmW8k7D//0qZXHe92PhZsu5/3elzOPxMYj1f92YQe+
D+X9ldfgfLacTGU=
-----END CERTIFICATE-----
